target datalayout = "e-m:e-p270:32:32-p271:32:32-p272:64:64-i64:64-i128:128-f80:128-n8:16:32:64-S128"
target triple = "x86_64-pc-linux-gnu"

%struct.sh_st = type { ptr, i64, ptr, i64, ptr, i64, i64, ptr, ptr, i64 }

@secure_mem_initialized = internal global i32 0, align 4
@sec_malloc_lock = internal global ptr null, align 8
@secure_mem_used = internal global i64 0, align 8
@sh = internal global %struct.sh_st zeroinitializer, align 8

; Function Attrs: nounwind uwtable
define internal i32 @sh_allocated(ptr noundef %0) #0 {
  %2 = alloca ptr, align 8
  store ptr %0, ptr %2, align 8, !tbaa !26
  %3 = load ptr, ptr %2, align 8, !tbaa !26
  %4 = load ptr, ptr getelementptr inbounds nuw (%struct.sh_st, ptr @sh, i32 0, i32 2), align 8, !tbaa !25
  %5 = icmp uge ptr %3, %4
  br i1 %5, label %6, label %12

6:                                                ; preds = %1
  %7 = load ptr, ptr %2, align 8, !tbaa !26
  %8 = load ptr, ptr getelementptr inbounds nuw (%struct.sh_st, ptr @sh, i32 0, i32 2), align 8, !tbaa !25
  %9 = load i64, ptr getelementptr inbounds nuw (%struct.sh_st, ptr @sh, i32 0, i32 3), align 8, !tbaa !11
  %10 = getelementptr inbounds nuw i8, ptr %8, i64 %9
  %11 = icmp ult ptr %7, %10
  br label %12

12:                                               ; preds = %6, %1
  %13 = phi i1 [ false, %1 ], [ %11, %6 ]
  %14 = select i1 %13, i32 1, i32 0
  ret i32 %14
}

; Function Attrs: nounwind uwtable
define i32 @CRYPTO_secure_allocated(ptr noundef %0) #0 {
  %2 = alloca i32, align 4
  %3 = alloca ptr, align 8
  store ptr %0, ptr %3, align 8, !tbaa !9
  %4 = load i32, ptr @secure_mem_initialized, align 4, !tbaa !7
  %5 = icmp ne i32 %4, 0
  br i1 %5, label %7, label %6

6:                                                ; preds = %1
  store i32 0, ptr %2, align 4
  br label %10

7:                                                ; preds = %1
  %8 = load ptr, ptr %3, align 8, !tbaa !9
  %9 = call i32 @sh_allocated(ptr noundef %8)
  store i32 %9, ptr %2, align 4
  br label %10

10:                                               ; preds = %7, %6
  %11 = load i32, ptr %2, align 4
  ret i32 %11
}

; Function Attrs: nounwind uwtable
define void @CRYPTO_secure_clear_free(ptr noundef %0, i64 noundef %1, ptr noundef %2, i32 noundef %3) #0 {
  %5 = alloca ptr, align 8
  %6 = alloca i64, align 8
  %7 = alloca ptr, align 8
  %8 = alloca i32, align 4
  %9 = alloca i64, align 8
  %10 = alloca i32, align 4
  store ptr %0, ptr %5, align 8, !tbaa !9
  store i64 %1, ptr %6, align 8, !tbaa !3
  store ptr %2, ptr %7, align 8, !tbaa !26
  store i32 %3, ptr %8, align 4, !tbaa !7
  call void @llvm.lifetime.start.p0(i64 8, ptr %9) #7
  %11 = load ptr, ptr %5, align 8, !tbaa !9
  %12 = icmp eq ptr %11, null
  br i1 %12, label %13, label %14

13:                                               ; preds = %4
  store i32 1, ptr %10, align 4
  br label %40

14:                                               ; preds = %4
  %15 = load ptr, ptr %5, align 8, !tbaa !9
  %16 = call i32 @CRYPTO_secure_allocated(ptr noundef %15)
  %17 = icmp ne i32 %16, 0
  br i1 %17, label %24, label %18

18:                                               ; preds = %14
  %19 = load ptr, ptr %5, align 8, !tbaa !9
  %20 = load i64, ptr %6, align 8, !tbaa !3
  call void @OPENSSL_cleanse(ptr noundef %19, i64 noundef %20)
  %21 = load ptr, ptr %5, align 8, !tbaa !9
  %22 = load ptr, ptr %7, align 8, !tbaa !26
  %23 = load i32, ptr %8, align 4, !tbaa !7
  call void @CRYPTO_free(ptr noundef %21, ptr noundef %22, i32 noundef %23)
  store i32 1, ptr %10, align 4
  br label %40

24:                                               ; preds = %14
  %25 = load ptr, ptr @sec_malloc_lock, align 8, !tbaa !9
  %26 = call i32 @CRYPTO_THREAD_write_lock(ptr noundef %25)
  %27 = icmp ne i32 %26, 0
  br i1 %27, label %29, label %28

28:                                               ; preds = %24
  store i32 1, ptr %10, align 4
  br label %40

29:                                               ; preds = %24
  %30 = load ptr, ptr %5, align 8, !tbaa !9
  %31 = call i64 @sh_actual_size(ptr noundef %30)
  store i64 %31, ptr %9, align 8, !tbaa !3
  %32 = load ptr, ptr %5, align 8, !tbaa !9
  %33 = load i64, ptr %9, align 8, !tbaa !3
  call void @OPENSSL_cleanse(ptr noundef %32, i64 noundef %33)
  %34 = load i64, ptr %9, align 8, !tbaa !3
  %35 = load i64, ptr @secure_mem_used, align 8, !tbaa !3
  %36 = sub i64 %35, %34
  store i64 %36, ptr @secure_mem_used, align 8, !tbaa !3
  %37 = load ptr, ptr %5, align 8, !tbaa !9
  call void @sh_free(ptr noundef %37)
  %38 = load ptr, ptr @sec_malloc_lock, align 8, !tbaa !9
  %39 = call i32 @CRYPTO_THREAD_unlock(ptr noundef %38)
  store i32 0, ptr %10, align 4
  br label %40

40:                                               ; preds = %29, %28, %18, %13
  call void @llvm.lifetime.end.p0(i64 8, ptr %9) #7
  %41 = load i32, ptr %10, align 4
  switch i32 %41, label %43 [
    i32 0, label %42
    i32 1, label %42
  ]

42:                                               ; preds = %40, %40
  ret void

43:                                               ; preds = %40
  unreachable
}