; Function Attrs: nounwind uwtable
define void @CRYPTO_secure_clear_free(ptr noundef %0, i64 noundef %1, ptr noundef %2, i32 noundef %3) local_unnamed_addr #0 {
  %5 = icmp eq ptr %0, null
  br i1 %5, label %21, label %6

6:                                                ; preds = %4
  %.b.i = load i1, ptr @secure_mem_initialized, align 4
  br i1 %.b.i, label %CRYPTO_secure_allocated.exit, label %CRYPTO_secure_allocated.exit.thread

CRYPTO_secure_allocated.exit:                     ; preds = %6
  %7 = load ptr, ptr getelementptr inbounds nuw (i8, ptr @sh, i64 16), align 8, !tbaa !22
  %8 = icmp ult ptr %0, %7
  %9 = load i64, ptr getelementptr inbounds nuw (i8, ptr @sh, i64 24), align 8
  %10 = getelementptr inbounds nuw i8, ptr %7, i64 %9
  %11 = icmp uge ptr %0, %10
  %.not16 = select i1 %8, i1 true, i1 %11
  br i1 %.not16, label %CRYPTO_secure_allocated.exit.thread, label %12

CRYPTO_secure_allocated.exit.thread:              ; preds = %6, %CRYPTO_secure_allocated.exit
  tail call void @OPENSSL_cleanse(ptr noundef nonnull %0, i64 noundef %1) #8
  tail call void @CRYPTO_free(ptr noundef nonnull %0, ptr noundef %2, i32 noundef %3) #8
  br label %21

12:                                               ; preds = %CRYPTO_secure_allocated.exit
  %13 = load ptr, ptr @sec_malloc_lock, align 8, !tbaa !3
  %14 = tail call i32 @CRYPTO_THREAD_write_lock(ptr noundef %13) #8
  %.not11 = icmp eq i32 %14, 0
  br i1 %.not11, label %21, label %15

15:                                               ; preds = %12
  %16 = tail call fastcc i64 @sh_actual_size(ptr noundef nonnull %0)
  tail call void @OPENSSL_cleanse(ptr noundef nonnull %0, i64 noundef %16) #8
  %17 = load i64, ptr @secure_mem_used, align 8, !tbaa !25
  %18 = sub i64 %17, %16
  store i64 %18, ptr @secure_mem_used, align 8, !tbaa !25
  tail call fastcc void @sh_free(ptr noundef %0)
  %19 = load ptr, ptr @sec_malloc_lock, align 8, !tbaa !3
  %20 = tail call i32 @CRYPTO_THREAD_unlock(ptr noundef %19) #8
  br label %21

21:                                               ; preds = %12, %4, %15, %CRYPTO_secure_allocated.exit.thread
  ret void
}